; Function Attrs: mustprogress nofree norecurse nosync nounwind willreturn memory(argmem: readwrite) uwtable
define range(i64 -60, 1) i64 @ZSTD_DCtx_setFormat(ptr noundef captures(none) %0, i32 noundef %1) local_unnamed_addr #7 {
  %3 = getelementptr inbounds nuw i8, ptr %0, i64 30236
  %4 = load i32, ptr %3, align 4, !tbaa !127
  %.not.i = icmp eq i32 %4, 0
  br i1 %.not.i, label %5, label %ZSTD_DCtx_setParameter.exit

5:                                                ; preds = %2
  %6 = icmp ugt i32 %1, 1
  br i1 %6, label %ZSTD_DCtx_setParameter.exit, label %7

7:                                                ; preds = %5
  %8 = getelementptr inbounds nuw i8, ptr %0, i64 30104
  store i32 %1, ptr %8, align 8, !tbaa !34
  br label %ZSTD_DCtx_setParameter.exit

ZSTD_DCtx_setParameter.exit:                      ; preds = %2, %5, %7
  %.0.i = phi i64 [ 0, %7 ], [ -60, %2 ], [ -42, %5 ]
  ret i64 %.0.i
}